target datalayout = "e-m:e-p270:32:32-p271:32:32-p272:64:64-i64:64-i128:128-f80:128-n8:16:32:64-S128"
target triple = "x86_64-pc-linux-gnu"

%"struct.OpenColorIO_v2_5dev::GradingRGBMSW" = type { double, double, double, double, double, double }

; Function Attrs: mustprogress nounwind uwtable
define noundef zeroext i1 @_ZN19OpenColorIO_v2_5deveqERKNS_13GradingRGBMSWES2_(ptr noundef nonnull align 8 dereferenceable(48) %0, ptr noundef nonnull align 8 dereferenceable(48) %1) #4 {
  %3 = alloca ptr, align 8
  %4 = alloca ptr, align 8
  store ptr %0, ptr %3, align 8, !tbaa !3
  store ptr %1, ptr %4, align 8, !tbaa !3
  %5 = load ptr, ptr %3, align 8, !tbaa !3
  %6 = getelementptr inbounds nuw %"struct.OpenColorIO_v2_5dev::GradingRGBMSW", ptr %5, i32 0, i32 0
  %7 = load double, ptr %6, align 8, !tbaa !8
  %8 = load ptr, ptr %4, align 8, !tbaa !3
  %9 = getelementptr inbounds nuw %"struct.OpenColorIO_v2_5dev::GradingRGBMSW", ptr %8, i32 0, i32 0
  %10 = load double, ptr %9, align 8, !tbaa !8
  %11 = fcmp oeq double %7, %10
  br i1 %11, label %12, label %52

12:                                               ; preds = %2
  %13 = load ptr, ptr %3, align 8, !tbaa !3
  %14 = getelementptr inbounds nuw %"struct.OpenColorIO_v2_5dev::GradingRGBMSW", ptr %13, i32 0, i32 1
  %15 = load double, ptr %14, align 8, !tbaa !11
  %16 = load ptr, ptr %4, align 8, !tbaa !3
  %17 = getelementptr inbounds nuw %"struct.OpenColorIO_v2_5dev::GradingRGBMSW", ptr %16, i32 0, i32 1
  %18 = load double, ptr %17, align 8, !tbaa !11
  %19 = fcmp oeq double %15, %18
  br i1 %19, label %20, label %52

20:                                               ; preds = %12
  %21 = load ptr, ptr %3, align 8, !tbaa !3
  %22 = getelementptr inbounds nuw %"struct.OpenColorIO_v2_5dev::GradingRGBMSW", ptr %21, i32 0, i32 2
  %23 = load double, ptr %22, align 8, !tbaa !12
  %24 = load ptr, ptr %4, align 8, !tbaa !3
  %25 = getelementptr inbounds nuw %"struct.OpenColorIO_v2_5dev::GradingRGBMSW", ptr %24, i32 0, i32 2
  %26 = load double, ptr %25, align 8, !tbaa !12
  %27 = fcmp oeq double %23, %26
  br i1 %27, label %28, label %52

28:                                               ; preds = %20
  %29 = load ptr, ptr %3, align 8, !tbaa !3
  %30 = getelementptr inbounds nuw %"struct.OpenColorIO_v2_5dev::GradingRGBMSW", ptr %29, i32 0, i32 3
  %31 = load double, ptr %30, align 8, !tbaa !13
  %32 = load ptr, ptr %4, align 8, !tbaa !3
  %33 = getelementptr inbounds nuw %"struct.OpenColorIO_v2_5dev::GradingRGBMSW", ptr %32, i32 0, i32 3
  %34 = load double, ptr %33, align 8, !tbaa !13
  %35 = fcmp oeq double %31, %34
  br i1 %35, label %36, label %52

36:                                               ; preds = %28
  %37 = load ptr, ptr %3, align 8, !tbaa !3
  %38 = getelementptr inbounds nuw %"struct.OpenColorIO_v2_5dev::GradingRGBMSW", ptr %37, i32 0, i32 4
  %39 = load double, ptr %38, align 8, !tbaa !14
  %40 = load ptr, ptr %4, align 8, !tbaa !3
  %41 = getelementptr inbounds nuw %"struct.OpenColorIO_v2_5dev::GradingRGBMSW", ptr %40, i32 0, i32 4
  %42 = load double, ptr %41, align 8, !tbaa !14
  %43 = fcmp oeq double %39, %42
  br i1 %43, label %44, label %52

44:                                               ; preds = %36
  %45 = load ptr, ptr %3, align 8, !tbaa !3
  %46 = getelementptr inbounds nuw %"struct.OpenColorIO_v2_5dev::GradingRGBMSW", ptr %45, i32 0, i32 5
  %47 = load double, ptr %46, align 8, !tbaa !15
  %48 = load ptr, ptr %4, align 8, !tbaa !3
  %49 = getelementptr inbounds nuw %"struct.OpenColorIO_v2_5dev::GradingRGBMSW", ptr %48, i32 0, i32 5
  %50 = load double, ptr %49, align 8, !tbaa !15
  %51 = fcmp oeq double %47, %50
  br label %52

52:                                               ; preds = %44, %36, %28, %20, %12, %2
  %53 = phi i1 [ false, %36 ], [ false, %28 ], [ false, %20 ], [ false, %12 ], [ false, %2 ], [ %51, %44 ]
  ret i1 %53
}