; Function Attrs: mustprogress nofree norecurse nosync nounwind willreturn memory(argmem: read) uwtable
define noundef zeroext i1 @_ZN19OpenColorIO_v2_5deveqERKNS_13GradingRGBMSWES2_(ptr noundef nonnull readonly align 8 captures(none) dereferenceable(48) %0, ptr noundef nonnull readonly align 8 captures(none) dereferenceable(48) %1) local_unnamed_addr #3 {
  %3 = load double, ptr %0, align 8, !tbaa !3
  %4 = load double, ptr %1, align 8, !tbaa !3
  %5 = fcmp oeq double %3, %4
  br i1 %5, label %6, label %36

6:                                                ; preds = %2
  %7 = getelementptr inbounds nuw i8, ptr %0, i64 8
  %8 = load double, ptr %7, align 8, !tbaa !8
  %9 = getelementptr inbounds nuw i8, ptr %1, i64 8
  %10 = load double, ptr %9, align 8, !tbaa !8
  %11 = fcmp oeq double %8, %10
  br i1 %11, label %12, label %36

12:                                               ; preds = %6
  %13 = getelementptr inbounds nuw i8, ptr %0, i64 16
  %14 = load double, ptr %13, align 8, !tbaa !9
  %15 = getelementptr inbounds nuw i8, ptr %1, i64 16
  %16 = load double, ptr %15, align 8, !tbaa !9
  %17 = fcmp oeq double %14, %16
  br i1 %17, label %18, label %36

18:                                               ; preds = %12
  %19 = getelementptr inbounds nuw i8, ptr %0, i64 24
  %20 = load double, ptr %19, align 8, !tbaa !10
  %21 = getelementptr inbounds nuw i8, ptr %1, i64 24
  %22 = load double, ptr %21, align 8, !tbaa !10
  %23 = fcmp oeq double %20, %22
  br i1 %23, label %24, label %36

24:                                               ; preds = %18
  %25 = getelementptr inbounds nuw i8, ptr %0, i64 32
  %26 = load double, ptr %25, align 8, !tbaa !11
  %27 = getelementptr inbounds nuw i8, ptr %1, i64 32
  %28 = load double, ptr %27, align 8, !tbaa !11
  %29 = fcmp oeq double %26, %28
  br i1 %29, label %30, label %36

30:                                               ; preds = %24
  %31 = getelementptr inbounds nuw i8, ptr %0, i64 40
  %32 = load double, ptr %31, align 8, !tbaa !12
  %33 = getelementptr inbounds nuw i8, ptr %1, i64 40
  %34 = load double, ptr %33, align 8, !tbaa !12
  %35 = fcmp oeq double %32, %34
  br label %36

36:                                               ; preds = %30, %24, %18, %12, %6, %2
  %37 = phi i1 [ false, %24 ], [ false, %18 ], [ false, %12 ], [ false, %6 ], [ false, %2 ], [ %35, %30 ]
  ret i1 %37
}